target datalayout = "e-m:e-p270:32:32-p271:32:32-p272:64:64-i64:64-i128:128-f80:128-n8:16:32:64-S128"
target triple = "x86_64-pc-linux-gnu"

@.str = private unnamed_addr constant [5 x i8] c"node\00", align 1

; Function Attrs: nounwind uwtable
define dso_local i32 @common_topo_get_node_addr(ptr noundef %0, ptr noundef %1, ptr noundef %2) #0 {
  %4 = alloca i32, align 4
  %5 = alloca ptr, align 8
  %6 = alloca ptr, align 8
  %7 = alloca ptr, align 8
  store ptr %0, ptr %5, align 8
  store ptr %1, ptr %6, align 8
  store ptr %2, ptr %7, align 8
  %8 = load ptr, ptr %5, align 8
  %9 = call ptr @slurm_find_node_record(ptr noundef %8)
  %10 = icmp eq ptr %9, null
  br i1 %10, label %11, label %12

11:                                               ; preds = %3
  store i32 -1, ptr %4, align 4
  br label %18

12:                                               ; preds = %3
  %13 = load ptr, ptr %5, align 8
  %14 = call ptr @slurm_xstrdup(ptr noundef %13)
  %15 = load ptr, ptr %6, align 8
  store ptr %14, ptr %15, align 8
  %16 = call ptr @slurm_xstrdup(ptr noundef @.str)
  %17 = load ptr, ptr %7, align 8
  store ptr %16, ptr %17, align 8
  store i32 0, ptr %4, align 4
  br label %18

18:                                               ; preds = %12, %11
  %19 = load i32, ptr %4, align 4
  ret i32 %19
}