; Function Attrs: nounwind uwtable
define dso_local range(i32 -1, 1) i32 @common_topo_get_node_addr(ptr noundef %0, ptr noundef writeonly captures(none) %1, ptr noundef writeonly captures(none) %2) local_unnamed_addr #0 {
  %4 = tail call ptr @slurm_find_node_record(ptr noundef %0) #8
  %5 = icmp eq ptr %4, null
  br i1 %5, label %9, label %6

6:                                                ; preds = %3
  %7 = tail call ptr @slurm_xstrdup(ptr noundef %0) #8
  store ptr %7, ptr %1, align 8
  %8 = tail call ptr @slurm_xstrdup(ptr noundef nonnull @.str) #8
  store ptr %8, ptr %2, align 8
  br label %9

9:                                                ; preds = %3, %6
  %.0 = phi i32 [ 0, %6 ], [ -1, %3 ]
  ret i32 %.0
}